(iLMA_measurement
PM_info
p0
(dp1
S'jitter'
p2
F0.0
sS'Traffic_packets'
p3
I0
sS'Traffic_Bytes'
p4
I0
sS'vcpu_number'
p5
I0
sS'core_number'
p6
I0
sS'bandwidth'
p7
F0.0
sS'device_type'
p8
S''
p9
sS'cpu_speed'
p10
F0.0
sS'normalized_load'
p11
F0.0
sS'packet_loss'
p12
F0.0
sS'latency'
p13
F0.0
sS'CPU_max'
p14
I8
sS'ID'
p15
L2L
sS'MEM_max'
p16
F15913.4375
sS'placement_group'
p17
S'zone2'
p18
sS'net_utilization'
p19
F0.0
sS'mem_utilization'
p20
F0.0
sS'memtotal'
p21
F0.0
sS'CPU_record'
p22
F0.87
sS'MEM_used'
p23
F3250.60546875
sS'cache_size'
p24
F0.0
sS'CPU_current'
p25
F0.882304858972
sb.(iLMA_measurement
PM_info
p0
(dp1
S'jitter'
p2
F0.0
sS'Traffic_packets'
p3
I0
sS'Traffic_Bytes'
p4
I0
sS'vcpu_number'
p5
I0
sS'core_number'
p6
I0
sS'bandwidth'
p7
F0.0
sS'device_type'
p8
S''
p9
sS'cpu_speed'
p10
F0.0
sS'normalized_load'
p11
F0.0
sS'packet_loss'
p12
F0.0
sS'latency'
p13
F0.0
sS'CPU_max'
p14
I8
sS'ID'
p15
L1L
sS'MEM_max'
p16
F15978.1640625
sS'placement_group'
p17
S'nova'
p18
sS'net_utilization'
p19
F0.0
sS'mem_utilization'
p20
F0.0
sS'memtotal'
p21
F0.0
sS'CPU_record'
p22
F1.09
sS'MEM_used'
p23
F14272.9375
sS'cache_size'
p24
F0.0
sS'CPU_current'
p25
F1.0814863747
sb.(iLMA_measurement
PM_info
p0
(dp1
S'jitter'
p2
F0.0
sS'Traffic_packets'
p3
I0
sS'Traffic_Bytes'
p4
I0
sS'vcpu_number'
p5
I0
sS'core_number'
p6
I0
sS'bandwidth'
p7
F0.0
sS'device_type'
p8
S''
p9
sS'cpu_speed'
p10
F0.0
sS'normalized_load'
p11
F0.0
sS'packet_loss'
p12
F0.0
sS'latency'
p13
F0.0
sS'CPU_max'
p14
I4
sS'ID'
p15
L4L
sS'MEM_max'
p16
F7982.6171875
sS'placement_group'
p17
S'zone4'
p18
sS'net_utilization'
p19
F0.0
sS'mem_utilization'
p20
F0.0
sS'memtotal'
p21
F0.0
sS'CPU_record'
p22
F0.86
sS'MEM_used'
p23
F1382.2734375
sS'cache_size'
p24
F0.0
sS'CPU_current'
p25
F0.874449936399
sb.(iLMA_measurement
PM_info
p0
(dp1
S'jitter'
p2
F0.0
sS'Traffic_packets'
p3
I0
sS'Traffic_Bytes'
p4
I0
sS'vcpu_number'
p5
I0
sS'core_number'
p6
I0
sS'bandwidth'
p7
F0.0
sS'device_type'
p8
S''
p9
sS'cpu_speed'
p10
F0.0
sS'normalized_load'
p11
F0.0
sS'packet_loss'
p12
F0.0
sS'latency'
p13
F0.0
sS'CPU_max'
p14
I4
sS'ID'
p15
L3L
sS'MEM_max'
p16
F7982.6171875
sS'placement_group'
p17
S'zone3'
p18
sS'net_utilization'
p19
F0.0
sS'mem_utilization'
p20
F0.0
sS'memtotal'
p21
F0.0
sS'CPU_record'
p22
F0.91
sS'MEM_used'
p23
F1320.66796875
sS'cache_size'
p24
F0.0
sS'CPU_current'
p25
F0.886267206862
sb.