(iLMA_measurement
VM_info
p0
(dp1
S'Virtual_cores_num'
p2
S'2'
p3
sS'predict'
p4
F6.5031584548505865
sS'CPU_current'
p5
g3
sS'CPU_record'
p6
g3
sS'IP_ue'
p7
(lp8
sS'Page_dirty_rate'
p9
I0
sS'MEM'
p10
g3
sS'accept_delay'
p11
S'0.7'
p12
sS'IP_rs'
p13
(lp14
sS'accept_dalay'
p15
I0
sS'disk'
p16
S'4'
p17
sS'ID'
p18
S'12'
p19
sS'IP_host'
p20
(lp21
sb.(iLMA_measurement
VM_info
p0
(dp1
S'Virtual_cores_num'
p2
S'2'
p3
sS'predict'
p4
F6.686900568366955
sS'CPU_current'
p5
g3
sS'CPU_record'
p6
g3
sS'IP_ue'
p7
(lp8
sS'Page_dirty_rate'
p9
I0
sS'MEM'
p10
g3
sS'accept_delay'
p11
S'0.7'
p12
sS'IP_rs'
p13
(lp14
sS'accept_dalay'
p15
I0
sS'disk'
p16
S'4'
p17
sS'ID'
p18
S'12'
p19
sS'IP_host'
p20
(lp21
sb.(iLMA_measurement
VM_info
p0
(dp1
S'Virtual_cores_num'
p2
S'2'
p3
sS'predict'
p4
F7.0351850956341515
sS'CPU_current'
p5
g3
sS'CPU_record'
p6
g3
sS'IP_ue'
p7
(lp8
sS'Page_dirty_rate'
p9
I0
sS'MEM'
p10
g3
sS'accept_delay'
p11
S'0.7'
p12
sS'IP_rs'
p13
(lp14
sS'accept_dalay'
p15
I0
sS'disk'
p16
S'4'
p17
sS'ID'
p18
S'12'
p19
sS'IP_host'
p20
(lp21
sb.(iLMA_measurement
VM_info
p0
(dp1
S'Virtual_cores_num'
p2
S'2'
p3
sS'predict'
p4
F6.974156325988078
sS'CPU_current'
p5
g3
sS'CPU_record'
p6
g3
sS'IP_ue'
p7
(lp8
sS'Page_dirty_rate'
p9
I0
sS'MEM'
p10
g3
sS'accept_delay'
p11
S'0.7'
p12
sS'IP_rs'
p13
(lp14
sS'accept_dalay'
p15
I0
sS'disk'
p16
S'4'
p17
sS'ID'
p18
S'12'
p19
sS'IP_host'
p20
(lp21
sb.