(iLMA_measurement
VM_info
p0
(dp1
S'Virtual_cores_num'
p2
S'CPU(s)'
p3
sS'CPU_current'
p4
F2.97
sS'predict'
p5
F64.27378865881167
sS'IP_ue'
p6
(lp7
S'127.0.0.1'
p8
asS'Page_dirty_rate'
p9
F2.318
sS'CPU_record'
p10
F3.13
sS'IP_rs'
p11
(lp12
S'192.168.1.154'
p13
asS'MEM'
p14
S'mem'
p15
sS'disk'
p16
S'array[2]'
p17
sS'ID'
p18
S'192.168.1.154'
p19
sS'IP_host'
p20
(lp21
S'192.168.1.154'
p22
asb.